TN:
SF:/mnt/hgfs/Desktop/DUUF/COMF/udp_customer/UdpConnection.cpp
FN:14,_ZN4DUUF4COMF3UDP13UdpConnectionC2ERKNSt7__cxx1112basic_stringIcSt11char_traitsIcESaIcEEERKNS1_22Send_Receive_Mode_EnumESA_RKiSF_
FN:45,_ZN4DUUF4COMF3UDP13UdpConnectionD2Ev
FN:45,_ZN4DUUF4COMF3UDP13UdpConnectionD0Ev
FN:62,_ZN4DUUF4COMF3UDP13UdpConnection10enableSendEv
FN:82,_ZN4DUUF4COMF3UDP13UdpConnection13enableReceiveEv
FN:102,_ZNK4DUUF4COMF3UDP13UdpConnection9getFamilyEv
FN:106,_ZNK4DUUF4COMF3UDP13UdpConnection7getModeEv
FN:110,_ZNK4DUUF4COMF3UDP13UdpConnection7getNameB5cxx11Ev
FN:114,_ZNK4DUUF4COMF3UDP13UdpConnection7getPortEv
FN:118,_ZNK4DUUF4COMF3UDP13UdpConnection10getUdpAddrB5cxx11Ev
FN:122,_ZNK4DUUF4COMF3UDP13UdpConnection4sendEPKcm
FN:130,_ZNK4DUUF4COMF3UDP13UdpConnection4recvEPcm
FN:138,_ZN4DUUF4COMF3UDP13UdpConnection11disableSendEv
FN:156,_ZN4DUUF4COMF3UDP13UdpConnection14disableReceiveEv
FN:175,_ZNK4DUUF4COMF3UDP13UdpConnection10timed_recvEPcmi
FNDA:0,_ZNK4DUUF4COMF3UDP13UdpConnection7getPortEv
FNDA:0,_ZNK4DUUF4COMF3UDP13UdpConnection7getNameB5cxx11Ev
FNDA:5,_ZNK4DUUF4COMF3UDP13UdpConnection4sendEPKcm
FNDA:0,_ZNK4DUUF4COMF3UDP13UdpConnection10timed_recvEPcmi
FNDA:114,_ZN4DUUF4COMF3UDP13UdpConnectionD2Ev
FNDA:0,_ZNK4DUUF4COMF3UDP13UdpConnection4recvEPcm
FNDA:0,_ZNK4DUUF4COMF3UDP13UdpConnection9getFamilyEv
FNDA:114,_ZN4DUUF4COMF3UDP13UdpConnectionC2ERKNSt7__cxx1112basic_stringIcSt11char_traitsIcESaIcEEERKNS1_22Send_Receive_Mode_EnumESA_RKiSF_
FNDA:12,_ZN4DUUF4COMF3UDP13UdpConnection10enableSendEv
FNDA:0,_ZNK4DUUF4COMF3UDP13UdpConnection7getModeEv
FNDA:12,_ZN4DUUF4COMF3UDP13UdpConnection14disableReceiveEv
FNDA:0,_ZN4DUUF4COMF3UDP13UdpConnectionD0Ev
FNDA:12,_ZN4DUUF4COMF3UDP13UdpConnection11disableSendEv
FNDA:12,_ZN4DUUF4COMF3UDP13UdpConnection13enableReceiveEv
FNDA:0,_ZNK4DUUF4COMF3UDP13UdpConnection10getUdpAddrB5cxx11Ev
FNF:15
FNH:7
DA:14,114
DA:15,114
DA:16,114
DA:17,36
DA:18,36
DA:19,36
DA:21,36
DA:22,45
DA:23,45
DA:24,45
DA:26,45
DA:27,24
DA:28,24
DA:29,24
DA:31,24
DA:32,9
DA:33,9
DA:34,9
DA:36,9
DA:37,0
DA:38,0
DA:39,0
DA:43,114
DA:45,114
DA:46,114
DA:47,33
DA:48,33
DA:50,114
DA:51,54
DA:52,54
DA:54,114
DA:62,12
DA:63,12
DA:64,6
DA:65,6
DA:66,0
DA:68,6
DA:69,0
DA:70,6
DA:71,6
DA:75,6
DA:78,6
DA:82,12
DA:83,12
DA:84,6
DA:85,6
DA:86,0
DA:88,6
DA:89,0
DA:90,6
DA:91,6
DA:95,6
DA:98,6
DA:102,0
DA:103,0
DA:106,0
DA:107,0
DA:110,0
DA:111,0
DA:114,0
DA:115,0
DA:118,0
DA:119,0
DA:122,5
DA:123,5
DA:124,2
DA:126,3
DA:130,0
DA:131,0
DA:132,0
DA:134,0
DA:138,12
DA:139,12
DA:140,6
DA:141,6
DA:142,6
DA:144,6
DA:145,6
DA:146,0
DA:147,0
DA:149,6
DA:152,6
DA:156,12
DA:157,12
DA:158,6
DA:159,6
DA:160,6
DA:162,6
DA:163,6
DA:164,0
DA:165,0
DA:168,6
DA:171,6
DA:175,0
DA:176,0
DA:177,0
DA:179,0
LF:97
LH:68
end_of_record
TN:
SF:/mnt/hgfs/Desktop/DUUF/COMF/udp_customer/UdpCustomer.cpp
FN:14,_ZN4DUUF4COMF3UDP11UdpCustomerC2Ev
FN:17,_ZN4DUUF4COMF3UDP11UdpCustomerD2Ev
FN:17,_ZN4DUUF4COMF3UDP11UdpCustomerD0Ev
FN:20,_ZN4DUUF4COMF3UDP11UdpCustomer14openConnectionERKNSt7__cxx1112basic_stringIcSt11char_traitsIcESaIcEEERKNS1_22Send_Receive_Mode_EnumESA_RKiSF_
FN:31,_ZN4DUUF4COMF3UDP11UdpCustomer15closeConnectionERKNSt7__cxx1112basic_stringIcSt11char_traitsIcESaIcEEE
FN:43,_ZN4DUUF4COMF3UDP11UdpCustomer20enableConnectionSendERKNSt7__cxx1112basic_stringIcSt11char_traitsIcESaIcEEE
FN:57,_ZN4DUUF4COMF3UDP11UdpCustomer23enableConnectionReceiveERKNSt7__cxx1112basic_stringIcSt11char_traitsIcESaIcEEE
FN:71,_ZNK4DUUF4COMF3UDP11UdpCustomer4sendEPKcmRKNSt7__cxx1112basic_stringIcSt11char_traitsIcESaIcEEE
FN:81,_ZNK4DUUF4COMF3UDP11UdpCustomer4recvEPcmRKNSt7__cxx1112basic_stringIcSt11char_traitsIcESaIcEEE
FN:91,_ZNK4DUUF4COMF3UDP11UdpCustomer10timed_recvEPcmiRKNSt7__cxx1112basic_stringIcSt11char_traitsIcESaIcEEE
FN:101,_ZN4DUUF4COMF3UDP11UdpCustomer21disableConnectionSendERKNSt7__cxx1112basic_stringIcSt11char_traitsIcESaIcEEE
FN:115,_ZN4DUUF4COMF3UDP11UdpCustomer24disableConnectionReceiveERKNSt7__cxx1112basic_stringIcSt11char_traitsIcESaIcEEE
FN:129,_ZN4DUUF4COMF3UDP11UdpCustomer16isConnectionOpenERKNSt7__cxx1112basic_stringIcSt11char_traitsIcESaIcEEE
FNDA:6,_ZNK4DUUF4COMF3UDP11UdpCustomer4sendEPKcmRKNSt7__cxx1112basic_stringIcSt11char_traitsIcESaIcEEE
FNDA:40,_ZN4DUUF4COMF3UDP11UdpCustomerD2Ev
FNDA:6,_ZN4DUUF4COMF3UDP11UdpCustomer24disableConnectionReceiveERKNSt7__cxx1112basic_stringIcSt11char_traitsIcESaIcEEE
FNDA:0,_ZNK4DUUF4COMF3UDP11UdpCustomer4recvEPcmRKNSt7__cxx1112basic_stringIcSt11char_traitsIcESaIcEEE
FNDA:68,_ZN4DUUF4COMF3UDP11UdpCustomer16isConnectionOpenERKNSt7__cxx1112basic_stringIcSt11char_traitsIcESaIcEEE
FNDA:0,_ZNK4DUUF4COMF3UDP11UdpCustomer10timed_recvEPcmiRKNSt7__cxx1112basic_stringIcSt11char_traitsIcESaIcEEE
FNDA:6,_ZN4DUUF4COMF3UDP11UdpCustomer20enableConnectionSendERKNSt7__cxx1112basic_stringIcSt11char_traitsIcESaIcEEE
FNDA:40,_ZN4DUUF4COMF3UDP11UdpCustomer14openConnectionERKNSt7__cxx1112basic_stringIcSt11char_traitsIcESaIcEEERKNS1_22Send_Receive_Mode_EnumESA_RKiSF_
FNDA:40,_ZN4DUUF4COMF3UDP11UdpCustomerC2Ev
FNDA:6,_ZN4DUUF4COMF3UDP11UdpCustomer21disableConnectionSendERKNSt7__cxx1112basic_stringIcSt11char_traitsIcESaIcEEE
FNDA:4,_ZN4DUUF4COMF3UDP11UdpCustomer15closeConnectionERKNSt7__cxx1112basic_stringIcSt11char_traitsIcESaIcEEE
FNDA:40,_ZN4DUUF4COMF3UDP11UdpCustomerD0Ev
FNDA:6,_ZN4DUUF4COMF3UDP11UdpCustomer23enableConnectionReceiveERKNSt7__cxx1112basic_stringIcSt11char_traitsIcESaIcEEE
FNF:13
FNH:11
DA:14,40
DA:15,40
DA:17,80
DA:18,80
DA:20,40
DA:21,40
DA:23,2
DA:25,38
DA:26,38
DA:28,38
DA:31,4
DA:32,4
DA:33,4
DA:35,2
DA:37,2
DA:38,2
DA:40,2
DA:43,6
DA:44,6
DA:46,2
DA:48,4
DA:49,4
DA:51,2
DA:54,2
DA:57,6
DA:58,6
DA:60,2
DA:62,4
DA:63,4
DA:65,2
DA:68,2
DA:71,6
DA:72,6
DA:73,6
DA:75,1
DA:77,5
DA:81,0
DA:82,0
DA:83,0
DA:85,0
DA:87,0
DA:91,0
DA:92,0
DA:93,0
DA:95,0
DA:97,0
DA:101,6
DA:102,6
DA:104,2
DA:106,4
DA:107,4
DA:109,2
DA:112,2
DA:115,6
DA:116,6
DA:118,2
DA:120,4
DA:121,4
DA:123,2
DA:126,2
DA:129,68
DA:130,68
DA:131,68
DA:133,48
DA:135,20
LF:65
LH:55
end_of_record
TN:
SF:/mnt/hgfs/Desktop/DUUF/COMF/udp_message_queue/UdpMessageQueue.cpp
FN:20,_ZN4DUUF4COMF3UDP15UdpMessageQueueC2Ev
FN:23,_ZN4DUUF4COMF3UDP15UdpMessageQueueC2ERKS2_
FN:26,_ZN4DUUF4COMF3UDP15UdpMessageQueueD0Ev
FN:26,_ZN4DUUF4COMF3UDP15UdpMessageQueueD2Ev
FNDA:0,_ZN4DUUF4COMF3UDP15UdpMessageQueueC2ERKS2_
FNDA:0,_ZN4DUUF4COMF3UDP15UdpMessageQueueD0Ev
FNDA:0,_ZN4DUUF4COMF3UDP15UdpMessageQueueC2Ev
FNDA:0,_ZN4DUUF4COMF3UDP15UdpMessageQueueD2Ev
FNF:4
FNH:0
DA:20,0
DA:21,0
DA:23,0
DA:24,0
DA:26,0
DA:27,0
LF:6
LH:0
end_of_record
TN:
SF:/mnt/hgfs/Desktop/DUUF/COMF/udp_sender_receiver/UdpBase.cpp
FN:25,_ZN4DUUF4COMF3UDP7UdpBaseC2ERKNSt7__cxx1112basic_stringIcSt11char_traitsIcESaIcEEERKiSC_
FN:57,_ZN4DUUF4COMF3UDP7UdpBaseD2Ev
FN:57,_ZN4DUUF4COMF3UDP7UdpBaseD0Ev
FN:64,_ZNK4DUUF4COMF3UDP7UdpBase10get_socketEv
FN:68,_ZNK4DUUF4COMF3UDP7UdpBase8get_portEv
FN:72,_ZNK4DUUF4COMF3UDP7UdpBase11get_addressB5cxx11Ev
FNDA:21,_ZNK4DUUF4COMF3UDP7UdpBase10get_socketEv
FNDA:14,_ZNK4DUUF4COMF3UDP7UdpBase8get_portEv
FNDA:474,_ZN4DUUF4COMF3UDP7UdpBaseD2Ev
FNDA:474,_ZN4DUUF4COMF3UDP7UdpBaseC2ERKNSt7__cxx1112basic_stringIcSt11char_traitsIcESaIcEEERKiSC_
FNDA:0,_ZN4DUUF4COMF3UDP7UdpBaseD0Ev
FNDA:14,_ZNK4DUUF4COMF3UDP7UdpBase11get_addressB5cxx11Ev
FNF:6
FNH:5
DA:25,474
DA:26,474
DA:27,474
DA:31,474
DA:35,948
DA:36,474
DA:37,948
DA:39,474
DA:40,474
DA:41,474
DA:42,474
DA:45,474
DA:46,474
DA:50,474
DA:51,474
DA:55,474
DA:57,474
DA:58,474
DA:59,474
DA:60,474
DA:62,474
DA:64,21
DA:65,21
DA:68,14
DA:69,14
DA:72,14
DA:73,14
LF:27
LH:27
end_of_record
TN:
SF:/mnt/hgfs/Desktop/DUUF/COMF/udp_sender_receiver/UdpReceiver.cpp
FN:27,_ZN4DUUF4COMF3UDP11UdpReceiverC2ERKNSt7__cxx1112basic_stringIcSt11char_traitsIcESaIcEEERKiSC_PS9_
FN:94,_ZNK4DUUF4COMF3UDP11UdpReceiver4recvEPcm
FN:98,_ZNK4DUUF4COMF3UDP11UdpReceiver10timed_recvEPcmi
FN:116,_ZNK4DUUF4COMF3UDP11UdpReceiver10timed_recvB5cxx11Eii
FNDA:29,_ZNK4DUUF4COMF3UDP11UdpReceiver4recvEPcm
FNDA:108,_ZNK4DUUF4COMF3UDP11UdpReceiver10timed_recvEPcmi
FNDA:249,_ZN4DUUF4COMF3UDP11UdpReceiverC2ERKNSt7__cxx1112basic_stringIcSt11char_traitsIcESaIcEEERKiSC_PS9_
FNDA:54,_ZNK4DUUF4COMF3UDP11UdpReceiver10timed_recvB5cxx11Eii
FNF:4
FNH:4
DA:27,249
DA:28,249
DA:29,249
DA:30,249
DA:31,0
DA:34,0
DA:35,0
DA:36,0
DA:37,0
DA:38,0
DA:39,0
DA:40,0
DA:41,0
DA:42,0
DA:43,0
DA:48,249
DA:51,46
DA:52,23
DA:53,46
DA:55,23
DA:56,23
DA:57,23
DA:58,23
DA:60,23
DA:61,23
DA:62,23
DA:67,23
DA:70,23
DA:71,23
DA:72,23
DA:73,23
DA:75,23
DA:82,23
DA:83,23
DA:92,249
DA:94,29
DA:95,29
DA:98,108
DA:100,108
DA:101,108
DA:102,108
DA:103,108
DA:105,0
DA:106,108
DA:108,50
DA:112,58
DA:113,58
DA:116,54
DA:117,108
DA:118,54
DA:119,54
DA:120,54
DA:122,29
DA:127,25
DA:129,50
DA:130,25
DA:131,25
DA:133,25
LF:58
LH:46
end_of_record
TN:
SF:/mnt/hgfs/Desktop/DUUF/COMF/udp_sender_receiver/UdpReceiver.h
FN:26,_ZN4DUUF4COMF3UDP11UdpReceiverD0Ev
FN:26,_ZN4DUUF4COMF3UDP11UdpReceiverD2Ev
FNDA:249,_ZN4DUUF4COMF3UDP11UdpReceiverD2Ev
FNDA:249,_ZN4DUUF4COMF3UDP11UdpReceiverD0Ev
FNF:2
FNH:2
DA:26,498
LF:1
LH:1
end_of_record
TN:
SF:/mnt/hgfs/Desktop/DUUF/COMF/udp_sender_receiver/UdpSender.cpp
FN:21,_ZN4DUUF4COMF3UDP9UdpSenderC2ERKNSt7__cxx1112basic_stringIcSt11char_traitsIcESaIcEEERKiSC_
FN:26,_ZNK4DUUF4COMF3UDP9UdpSender4sendEPKcm
FNDA:111,_ZNK4DUUF4COMF3UDP9UdpSender4sendEPKcm
FNDA:225,_ZN4DUUF4COMF3UDP9UdpSenderC2ERKNSt7__cxx1112basic_stringIcSt11char_traitsIcESaIcEEERKiSC_
FNF:2
FNH:2
DA:21,225
DA:22,225
DA:24,225
DA:26,111
DA:27,111
LF:5
LH:5
end_of_record
TN:
SF:/mnt/hgfs/Desktop/DUUF/COMF/udp_sender_receiver/UdpSender.h
FN:27,_ZN4DUUF4COMF3UDP9UdpSenderD0Ev
FN:27,_ZN4DUUF4COMF3UDP9UdpSenderD2Ev
FNDA:225,_ZN4DUUF4COMF3UDP9UdpSenderD2Ev
FNDA:225,_ZN4DUUF4COMF3UDP9UdpSenderD0Ev
FNF:2
FNH:2
DA:27,450
LF:1
LH:1
end_of_record
